Certificate:
    Data:
        Version: 3 (0x2)
        Serial Number:
            d6:92:b5:70:c8:cb:26:b1:82:41:6a:87:00:a2:8e:1d
    Signature Algorithm: sha256WithRSAEncryption
        Issuer: CN=rasvpn
        Validity
            Not Before: Feb  7 00:58:12 2023 GMT
            Not After : May 12 00:58:12 2025 GMT
        Subject: CN=client
        Subject Public Key Info:
            Public Key Algorithm: rsaEncryption
                Public-Key: (2048 bit)
                Modulus:
                    00:e1:1f:55:d2:9e:a3:47:2b:9e:22:c9:f7:ce:fe:
                    bf:f3:8c:bd:be:28:b9:16:80:07:8a:d3:8a:2b:1a:
                    11:da:b6:78:9d:2a:ec:9d:05:98:63:f1:17:2d:3a:
                    e7:a1:db:32:11:88:69:1d:dc:bf:d4:3f:f1:7c:f0:
                    69:f5:03:c1:55:d2:b9:8d:af:56:91:a2:48:5b:84:
                    fc:05:c9:59:98:24:e4:22:14:e0:b4:20:ed:ed:5e:
                    aa:bc:4b:07:9c:1e:5c:e0:e6:e8:c4:08:42:ae:27:
                    68:91:7f:af:90:5e:1a:3b:8b:b6:70:e4:24:48:2f:
                    98:21:91:c2:9f:aa:d4:d5:a5:02:3d:a6:b2:c7:3d:
                    c3:8b:b8:c9:21:b6:b4:cc:e3:a5:89:70:ac:5e:24:
                    94:69:09:99:66:9b:33:6d:5d:fd:33:06:c7:29:c1:
                    79:7f:e6:28:7b:98:8a:b3:52:7d:d9:10:d9:ce:9a:
                    f6:b3:d5:45:22:78:4f:b2:e4:a4:5a:36:bb:4c:52:
                    94:6a:ec:64:0c:87:cc:83:14:57:2d:2a:ec:d3:b9:
                    8b:2f:bc:6f:6f:88:b0:77:40:e2:d1:a9:6b:25:87:
                    fe:a6:24:23:af:99:36:93:9d:00:ef:d9:20:ce:58:
                    92:ba:2b:3e:ae:01:0f:83:1d:e1:df:87:32:e4:55:
                    7c:2f
                Exponent: 65537 (0x10001)
        X509v3 extensions:
            X509v3 Basic Constraints: 
                CA:FALSE
            X509v3 Subject Key Identifier: 
                70:42:3C:B1:2B:AF:63:7A:5B:03:BA:5E:A8:10:25:1D:A6:4F:69:7E
            X509v3 Authority Key Identifier: 
                keyid:CC:37:82:29:D4:00:74:2F:8F:C6:5C:7D:8F:19:6F:38:61:0C:CF:91
                DirName:/CN=rasvpn
                serial:94:FF:90:5E:8E:94:85:36

            X509v3 Extended Key Usage: 
                TLS Web Client Authentication
            X509v3 Key Usage: 
                Digital Signature
    Signature Algorithm: sha256WithRSAEncryption
         41:1b:9d:f1:2f:e9:d2:63:0a:0b:fb:7b:88:52:2d:d0:e4:4b:
         a1:82:1e:32:8a:17:48:bc:a1:4f:7b:e5:16:55:8f:4f:df:de:
         7b:0d:67:63:32:4a:90:d2:08:1d:22:19:06:dd:99:f0:33:f5:
         fc:5a:e5:24:6f:a1:8f:7f:4d:73:00:b8:a9:c5:5c:b0:42:cc:
         a1:33:c4:ab:13:e8:67:95:8e:3c:97:f5:9e:52:6c:4f:03:ab:
         d2:e9:e7:5e:ec:ac:39:85:73:92:03:6a:73:6c:5d:de:a6:c0:
         f6:c6:9e:a4:59:d1:78:e5:55:b1:f1:3f:09:e7:66:e6:e9:0e:
         4c:8b:b0:7e:c6:e6:e7:f6:a0:38:f4:85:e7:98:60:80:d2:6b:
         a9:0c:d2:65:1c:28:06:4e:66:c9:a5:8e:ab:41:c6:9a:20:79:
         16:0b:f8:6e:0f:34:e3:24:6e:6e:cc:45:88:e1:91:b1:7a:fb:
         7b:3a:9f:ac:a4:5b:42:f0:c4:5a:f6:ca:b9:e0:da:a0:8b:d3:
         48:20:d9:52:eb:19:4d:d9:19:e6:0c:88:a9:ed:03:6b:d1:2e:
         35:06:2f:9e:e5:b0:84:95:72:6f:ff:bd:d3:65:3d:b3:16:e6:
         04:69:21:92:6f:6d:c7:74:0a:b0:2b:3c:9c:8b:e0:9a:a9:93:
         96:90:12:61
-----BEGIN CERTIFICATE-----
MIIDQDCCAiigAwIBAgIRANaStXDIyyaxgkFqhwCijh0wDQYJKoZIhvcNAQELBQAw
ETEPMA0GA1UEAwwGcmFzdnBuMB4XDTIzMDIwNzAwNTgxMloXDTI1MDUxMjAwNTgx
MlowETEPMA0GA1UEAwwGY2xpZW50MIIBIjANBgkqhkiG9w0BAQEFAAOCAQ8AMIIB
CgKCAQEA4R9V0p6jRyueIsn3zv6/84y9vii5FoAHitOKKxoR2rZ4nSrsnQWYY/EX
LTrnodsyEYhpHdy/1D/xfPBp9QPBVdK5ja9WkaJIW4T8BclZmCTkIhTgtCDt7V6q
vEsHnB5c4OboxAhCridokX+vkF4aO4u2cOQkSC+YIZHCn6rU1aUCPaayxz3Di7jJ
Iba0zOOliXCsXiSUaQmZZpszbV39MwbHKcF5f+Yoe5iKs1J92RDZzpr2s9VFInhP
suSkWja7TFKUauxkDIfMgxRXLSrs07mLL7xvb4iwd0Di0alrJYf+piQjr5k2k50A
79kgzliSuis+rgEPgx3h34cy5FV8LwIDAQABo4GSMIGPMAkGA1UdEwQCMAAwHQYD
VR0OBBYEFHBCPLErr2N6WwO6XqgQJR2mT2l+MEEGA1UdIwQ6MDiAFMw3ginUAHQv
j8ZcfY8ZbzhhDM+RoRWkEzARMQ8wDQYDVQQDDAZyYXN2cG6CCQCU/5BejpSFNjAT
BgNVHSUEDDAKBggrBgEFBQcDAjALBgNVHQ8EBAMCB4AwDQYJKoZIhvcNAQELBQAD
ggEBAEEbnfEv6dJjCgv7e4hSLdDkS6GCHjKKF0i8oU975RZVj0/f3nsNZ2MySpDS
CB0iGQbdmfAz9fxa5SRvoY9/TXMAuKnFXLBCzKEzxKsT6GeVjjyX9Z5SbE8Dq9Lp
517srDmFc5IDanNsXd6mwPbGnqRZ0XjlVbHxPwnnZubpDkyLsH7G5uf2oDj0heeY
YIDSa6kM0mUcKAZOZsmljqtBxpogeRYL+G4PNOMkbm7MRYjhkbF6+3s6n6ykW0Lw
xFr2yrng2qCL00gg2VLrGU3ZGeYMiKntA2vRLjUGL57lsISVcm//vdNlPbMW5gRp
IZJvbcd0CrArPJyL4Jqpk5aQEmE=
-----END CERTIFICATE-----
